; Function Attrs: nounwind uwtable
define hidden range(i32 0, 49) i32 @SSL_CTX_set_tlsext_ticket_keys(ptr noundef writeonly captures(none) %ctx, ptr noundef readonly %in, i64 noundef %len) local_unnamed_addr #1 {
entry:
  %cmp = icmp eq ptr %in, null
  br i1 %cmp, label %return, label %if.end

if.end:                                           ; preds = %entry
  %cmp1.not = icmp eq i64 %len, 48
  br i1 %cmp1.not, label %if.end3, label %if.then2

if.then2:                                         ; preds = %if.end
  tail call void @ERR_put_error(i32 noundef 16, i32 noundef 0, i32 noundef 161, ptr noundef nonnull @.str, i32 noundef 427) #14
  br label %return

if.end3:                                          ; preds = %if.end
  %tlsext_tick_key_name = getelementptr inbounds nuw i8, ptr %ctx, i64 416
  tail call void @llvm.memcpy.p0.p0.i64(ptr noundef nonnull align 8 dereferenceable(16) %tlsext_tick_key_name, ptr noundef nonnull align 1 dereferenceable(16) %in, i64 16, i1 false)
  %tlsext_tick_hmac_key = getelementptr inbounds nuw i8, ptr %ctx, i64 432
  %add.ptr = getelementptr inbounds nuw i8, ptr %in, i64 16
  tail call void @llvm.memcpy.p0.p0.i64(ptr noundef nonnull align 8 dereferenceable(16) %tlsext_tick_hmac_key, ptr noundef nonnull align 1 dereferenceable(16) %add.ptr, i64 16, i1 false)
  %tlsext_tick_aes_key = getelementptr inbounds nuw i8, ptr %ctx, i64 448
  %add.ptr6 = getelementptr inbounds nuw i8, ptr %in, i64 32
  tail call void @llvm.memcpy.p0.p0.i64(ptr noundef nonnull align 8 dereferenceable(16) %tlsext_tick_aes_key, ptr noundef nonnull align 1 dereferenceable(16) %add.ptr6, i64 16, i1 false)
  br label %return

return:                                           ; preds = %entry, %if.end3, %if.then2
  %retval.0 = phi i32 [ 0, %if.then2 ], [ 1, %if.end3 ], [ 48, %entry ]
  ret i32 %retval.0
}